Certificate:
    Data:
        Version: 3 (0x2)
        Serial Number: 1 (0x1)
    Signature Algorithm: sha256WithRSAEncryption
        Issuer: CN=Easy-RSA CA
        Validity
            Not Before: Mar 16 14:10:44 2020 GMT
            Not After : Mar 14 14:10:44 2030 GMT
        Subject: CN=172.18.104.172
        Subject Public Key Info:
            Public Key Algorithm: rsaEncryption
                Public-Key: (2048 bit)
                Modulus:
                    00:c0:f1:c4:88:ea:13:71:bd:bf:bd:9c:6f:a6:8c:
                    ae:41:ef:8c:f6:da:2e:86:6a:55:1c:9d:f9:a5:27:
                    53:b0:b8:a4:fb:d5:1b:05:99:07:0b:a3:64:e9:96:
                    b1:38:ff:ec:33:06:31:d4:c4:0e:19:e6:52:23:5b:
                    8b:87:99:5c:17:01:4f:8f:87:ba:ab:e2:1e:6e:cd:
                    b8:1b:39:5a:c5:34:69:8a:5a:97:34:82:24:28:f6:
                    2d:7a:5e:3f:41:90:c3:58:39:8b:a9:71:16:0c:ae:
                    49:c3:5c:40:dd:b0:8b:a9:8d:5b:71:1c:5b:d8:49:
                    7e:a2:62:36:33:e0:94:82:ca:50:e2:6e:b1:1e:ee:
                    f9:7b:a9:a6:bb:71:59:49:cc:52:01:97:21:46:eb:
                    b3:f6:64:f9:61:39:ac:27:b6:4c:43:10:ad:76:07:
                    f1:28:62:f9:c5:c4:6c:e7:23:3f:2d:87:6a:32:43:
                    bf:13:9e:13:5a:59:ad:e7:dd:a3:52:6b:d1:75:85:
                    ed:54:a4:07:4d:7b:8f:f7:c1:02:65:43:11:00:39:
                    57:7d:c4:d7:e2:87:df:9e:bf:3b:65:d0:06:91:d7:
                    be:bb:33:95:4f:93:c9:a7:16:82:d0:05:e9:52:81:
                    cf:c7:41:3c:5d:a2:09:4a:20:0a:79:99:65:c6:f0:
                    5d:89
                Exponent: 65537 (0x10001)
        X509v3 extensions:
            X509v3 Basic Constraints: 
                CA:FALSE
            X509v3 Subject Key Identifier: 
                B9:24:71:99:DB:5D:E1:0F:A0:80:AB:B7:08:F6:85:34:8C:6B:BC:38
            X509v3 Authority Key Identifier: 
                keyid:7C:EF:57:84:53:05:06:11:6E:3C:25:B4:CB:C1:09:AF:A2:87:AF:62
                DirName:/CN=Easy-RSA CA
                serial:8F:34:19:A3:75:2E:65:A0

            X509v3 Extended Key Usage: 
                TLS Web Server Authentication
            X509v3 Key Usage: 
                Digital Signature, Key Encipherment
    Signature Algorithm: sha256WithRSAEncryption
         6b:52:8e:ab:7f:cf:ed:75:3b:bd:03:08:8e:8d:cb:70:54:e9:
         27:1e:1f:19:15:a1:a9:b7:9b:f9:65:d6:4f:ab:0a:a2:2e:62:
         91:17:11:bd:9f:31:56:d1:54:0b:b5:bf:66:38:89:32:39:09:
         16:42:bf:24:8c:84:dc:33:09:e1:f2:cd:5a:c7:dc:72:8d:ef:
         f7:35:a5:a1:05:d0:c7:dc:45:48:03:c0:3b:e5:d0:dc:fb:72:
         72:54:ab:fd:3d:99:71:ce:ce:91:39:12:1b:9f:77:83:29:23:
         46:70:d4:a8:7c:a2:51:da:5f:4b:dd:27:18:01:82:73:39:e4:
         f1:ea:bc:de:e9:3f:1b:05:77:40:35:73:9d:0a:b8:80:b5:8d:
         ad:85:27:59:e6:bc:95:b8:93:fd:64:6d:2f:0d:0f:99:be:40:
         3a:3d:fd:2e:5d:a0:78:8a:12:09:4e:51:47:5c:4a:af:d8:3e:
         12:d8:c0:03:82:c4:40:2d:1a:ae:f5:cc:52:0c:83:9b:fe:d9:
         9b:f3:34:18:f6:78:7d:68:17:0a:0f:fe:5a:9e:9a:cb:04:8a:
         39:09:43:22:1f:0a:22:a3:8c:38:ec:2e:bf:f1:34:fe:25:db:
         69:5c:c3:63:98:fb:48:d0:66:fd:59:f8:9a:f6:d4:32:b4:63:
         2f:b4:38:5a
-----BEGIN CERTIFICATE-----
MIIDQjCCAiqgAwIBAgIBATANBgkqhkiG9w0BAQsFADAWMRQwEgYDVQQDDAtFYXN5
LVJTQSBDQTAeFw0yMDAzMTYxNDEwNDRaFw0zMDAzMTQxNDEwNDRaMBkxFzAVBgNV
BAMMDjE3Mi4xOC4xMDQuMTcyMIIBIjANBgkqhkiG9w0BAQEFAAOCAQ8AMIIBCgKC
AQEAwPHEiOoTcb2/vZxvpoyuQe+M9touhmpVHJ35pSdTsLik+9UbBZkHC6Nk6Zax
OP/sMwYx1MQOGeZSI1uLh5lcFwFPj4e6q+Iebs24GzlaxTRpilqXNIIkKPYtel4/
QZDDWDmLqXEWDK5Jw1xA3bCLqY1bcRxb2El+omI2M+CUgspQ4m6xHu75e6mmu3FZ
ScxSAZchRuuz9mT5YTmsJ7ZMQxCtdgfxKGL5xcRs5yM/LYdqMkO/E54TWlmt592j
UmvRdYXtVKQHTXuP98ECZUMRADlXfcTX4offnr87ZdAGkde+uzOVT5PJpxaC0AXp
UoHPx0E8XaIJSiAKeZllxvBdiQIDAQABo4GXMIGUMAkGA1UdEwQCMAAwHQYDVR0O
BBYEFLkkcZnbXeEPoICrtwj2hTSMa7w4MEYGA1UdIwQ/MD2AFHzvV4RTBQYRbjwl
tMvBCa+ih69ioRqkGDAWMRQwEgYDVQQDDAtFYXN5LVJTQSBDQYIJAI80GaN1LmWg
MBMGA1UdJQQMMAoGCCsGAQUFBwMBMAsGA1UdDwQEAwIFoDANBgkqhkiG9w0BAQsF
AAOCAQEAa1KOq3/P7XU7vQMIjo3LcFTpJx4fGRWhqbeb+WXWT6sKoi5ikRcRvZ8x
VtFUC7W/ZjiJMjkJFkK/JIyE3DMJ4fLNWsfcco3v9zWloQXQx9xFSAPAO+XQ3Pty
clSr/T2Zcc7OkTkSG593gykjRnDUqHyiUdpfS90nGAGCcznk8eq83uk/GwV3QDVz
nQq4gLWNrYUnWea8lbiT/WRtLw0Pmb5AOj39Ll2geIoSCU5RR1xKr9g+EtjAA4LE
QC0arvXMUgyDm/7Zm/M0GPZ4fWgXCg/+Wp6aywSKOQlDIh8KIqOMOOwuv/E0/iXb
aVzDY5j7SNBm/Vn4mvbUMrRjL7Q4Wg==
-----END CERTIFICATE-----
