Certificate:
    Data:
        Version: 3 (0x2)
        Serial Number: 1 (0x1)
    Signature Algorithm: sha256WithRSAEncryption
        Issuer: CN=Easy-RSA CA
        Validity
            Not Before: Mar 17 03:05:12 2020 GMT
            Not After : Mar 15 03:05:12 2030 GMT
        Subject: CN=172.17.120.168
        Subject Public Key Info:
            Public Key Algorithm: rsaEncryption
                Public-Key: (2048 bit)
                Modulus:
                    00:cb:36:b2:17:fc:3a:9a:1b:23:f0:43:24:d2:2d:
                    04:47:9b:ee:d5:e5:22:50:48:08:62:45:25:0c:97:
                    2f:a8:f8:24:2d:91:31:ed:d9:1b:41:ed:15:d1:b3:
                    2a:89:9d:a7:92:4e:4f:de:0b:5b:ac:d8:da:b5:68:
                    46:c6:e9:a5:4f:12:b5:d4:90:45:5a:dc:e9:f0:ae:
                    71:1f:16:4d:ad:bd:ec:db:11:39:fa:89:f0:61:89:
                    19:15:75:1e:13:62:2d:42:16:ea:c9:fe:9c:88:53:
                    37:44:50:89:d0:0f:c2:cc:9b:3f:26:19:91:48:6b:
                    2f:27:87:2a:9f:c7:fe:8e:2a:89:09:99:35:66:44:
                    96:b3:37:80:1d:6c:f5:7c:71:d6:a2:49:15:53:1f:
                    5b:cc:2f:c3:a2:71:e8:49:23:bb:05:c7:4f:79:0b:
                    65:ec:f5:c0:b4:6e:2f:cc:13:bf:96:46:f7:59:81:
                    b5:e0:90:42:f2:d9:20:23:de:9b:c4:2d:90:0a:47:
                    ff:af:10:39:2c:f4:b0:34:50:ab:87:77:f6:52:93:
                    74:22:ce:6a:a8:6a:65:bb:38:e9:06:8e:3d:de:00:
                    2a:45:d2:3b:40:6c:49:d9:e3:b6:6c:99:fa:8d:45:
                    3c:60:80:1b:19:33:2d:e9:8e:9d:f2:c6:9e:63:0d:
                    ac:19
                Exponent: 65537 (0x10001)
        X509v3 extensions:
            X509v3 Basic Constraints: 
                CA:FALSE
            X509v3 Subject Key Identifier: 
                EF:C4:70:E3:9A:D5:A9:D1:F4:97:09:BB:DF:47:A8:67:A3:C0:70:A1
            X509v3 Authority Key Identifier: 
                keyid:15:58:81:20:C1:1B:42:73:3D:FC:EF:41:A7:96:FC:AC:A0:3C:41:DC
                DirName:/CN=Easy-RSA CA
                serial:D0:12:05:D4:BD:7A:6A:6F

            X509v3 Extended Key Usage: 
                TLS Web Server Authentication
            X509v3 Key Usage: 
                Digital Signature, Key Encipherment
    Signature Algorithm: sha256WithRSAEncryption
         1b:ac:38:0f:10:70:46:44:09:45:8d:23:ce:cf:23:65:91:7c:
         a7:50:0e:67:f0:f2:26:35:97:d2:19:67:41:5d:f4:1d:0f:71:
         04:2c:d7:57:13:07:87:f5:27:99:2e:fe:c6:b6:73:be:be:a9:
         02:70:57:d1:ac:fd:72:72:42:0a:84:c5:7f:02:85:73:4f:1f:
         95:3c:ff:f0:9d:b7:4f:07:eb:61:ec:a1:85:8a:f4:7e:e4:60:
         ce:1a:62:a8:23:72:3f:03:d7:a0:bf:0f:43:71:a4:44:17:d7:
         7a:45:a5:10:f0:2f:54:48:c7:59:f1:34:9c:88:ed:80:11:4a:
         91:ee:e6:98:c8:fc:ff:f3:04:a9:ce:94:28:ae:db:9f:21:05:
         d9:31:90:b1:9b:fe:d9:d4:41:c4:08:fd:fb:34:3d:5d:84:01:
         f8:c2:97:f6:03:bb:8a:ab:6d:32:b6:d5:ce:b2:4c:1c:83:29:
         4c:70:ad:c7:b7:c4:9d:02:91:18:5a:d6:a2:5d:78:a6:b9:93:
         50:27:12:cb:d7:f9:d6:f8:26:a7:41:13:ad:60:13:d7:47:c1:
         bb:89:61:47:cc:ce:6d:a4:8a:bf:ab:ff:f9:6c:33:da:fd:d2:
         94:69:68:5d:86:52:8a:20:00:29:fb:ad:df:a5:33:cd:37:44:
         96:38:23:e0
-----BEGIN CERTIFICATE-----
MIIDQjCCAiqgAwIBAgIBATANBgkqhkiG9w0BAQsFADAWMRQwEgYDVQQDDAtFYXN5
LVJTQSBDQTAeFw0yMDAzMTcwMzA1MTJaFw0zMDAzMTUwMzA1MTJaMBkxFzAVBgNV
BAMMDjE3Mi4xNy4xMjAuMTY4MIIBIjANBgkqhkiG9w0BAQEFAAOCAQ8AMIIBCgKC
AQEAyzayF/w6mhsj8EMk0i0ER5vu1eUiUEgIYkUlDJcvqPgkLZEx7dkbQe0V0bMq
iZ2nkk5P3gtbrNjatWhGxumlTxK11JBFWtzp8K5xHxZNrb3s2xE5+onwYYkZFXUe
E2ItQhbqyf6ciFM3RFCJ0A/CzJs/JhmRSGsvJ4cqn8f+jiqJCZk1ZkSWszeAHWz1
fHHWokkVUx9bzC/DonHoSSO7BcdPeQtl7PXAtG4vzBO/lkb3WYG14JBC8tkgI96b
xC2QCkf/rxA5LPSwNFCrh3f2UpN0Is5qqGpluzjpBo493gAqRdI7QGxJ2eO2bJn6
jUU8YIAbGTMt6Y6d8saeYw2sGQIDAQABo4GXMIGUMAkGA1UdEwQCMAAwHQYDVR0O
BBYEFO/EcOOa1anR9JcJu99HqGejwHChMEYGA1UdIwQ/MD2AFBVYgSDBG0JzPfzv
QaeW/KygPEHcoRqkGDAWMRQwEgYDVQQDDAtFYXN5LVJTQSBDQYIJANASBdS9empv
MBMGA1UdJQQMMAoGCCsGAQUFBwMBMAsGA1UdDwQEAwIFoDANBgkqhkiG9w0BAQsF
AAOCAQEAG6w4DxBwRkQJRY0jzs8jZZF8p1AOZ/DyJjWX0hlnQV30HQ9xBCzXVxMH
h/UnmS7+xrZzvr6pAnBX0az9cnJCCoTFfwKFc08flTz/8J23TwfrYeyhhYr0fuRg
zhpiqCNyPwPXoL8PQ3GkRBfXekWlEPAvVEjHWfE0nIjtgBFKke7mmMj8//MEqc6U
KK7bnyEF2TGQsZv+2dRBxAj9+zQ9XYQB+MKX9gO7iqttMrbVzrJMHIMpTHCtx7fE
nQKRGFrWol14prmTUCcSy9f51vgmp0ETrWAT10fBu4lhR8zObaSKv6v/+Wwz2v3S
lGloXYZSiiAAKfut36UzzTdEljgj4A==
-----END CERTIFICATE-----
