Certificate:
    Data:
        Version: 3 (0x2)
        Serial Number: 2 (0x2)
    Signature Algorithm: sha256WithRSAEncryption
        Issuer: CN=Easy-RSA CA
        Validity
            Not Before: Mar 17 03:05:18 2020 GMT
            Not After : Mar 15 03:05:18 2030 GMT
        Subject: CN=caspar
        Subject Public Key Info:
            Public Key Algorithm: rsaEncryption
                Public-Key: (2048 bit)
                Modulus:
                    00:b8:14:a1:a4:2e:10:f2:c6:37:3a:55:99:bf:1b:
                    f1:3b:07:c4:81:6d:8d:55:49:15:98:07:b0:f8:2b:
                    d1:5b:26:a6:43:9d:33:63:2a:ba:5a:b7:1e:aa:3b:
                    73:76:1b:22:3b:d3:ce:aa:0a:5a:04:47:15:9e:12:
                    c9:58:ec:da:8c:f5:05:d0:db:56:a4:8b:53:2a:1e:
                    9d:75:65:e7:eb:5a:a4:71:36:01:e1:f3:76:60:16:
                    7c:df:9c:2c:b8:90:df:dd:42:b3:df:42:3d:60:67:
                    c4:b0:b2:fc:4d:6e:30:b1:25:5f:42:3e:6b:57:11:
                    f8:06:d0:4c:0b:7b:36:a1:85:87:c9:88:fd:25:14:
                    ac:d8:21:da:6a:48:9d:ae:c7:0d:c2:1b:bf:cf:4d:
                    b6:c6:c7:8c:af:a4:94:b0:c7:dc:85:d1:5b:91:f8:
                    54:f0:f3:d5:8d:29:ab:85:8e:df:4c:45:dd:a4:5c:
                    7e:95:a3:f0:90:d5:4f:36:31:af:a5:05:ab:df:63:
                    0c:22:15:37:06:fd:25:de:e0:13:ad:e7:78:d4:e9:
                    75:86:97:64:b4:7a:86:8e:28:ab:f8:31:be:b1:69:
                    d8:ee:3c:2b:1f:64:72:f4:22:25:fb:a3:40:da:b0:
                    b5:ea:67:6b:4e:69:9d:e3:71:7a:6e:3c:26:62:64:
                    2b:eb
                Exponent: 65537 (0x10001)
        X509v3 extensions:
            X509v3 Basic Constraints: 
                CA:FALSE
            X509v3 Subject Key Identifier: 
                F6:07:D7:6C:68:48:68:1E:C9:DA:DF:3C:A1:B8:36:D1:2B:80:B5:DD
            X509v3 Authority Key Identifier: 
                keyid:15:58:81:20:C1:1B:42:73:3D:FC:EF:41:A7:96:FC:AC:A0:3C:41:DC
                DirName:/CN=Easy-RSA CA
                serial:D0:12:05:D4:BD:7A:6A:6F

            X509v3 Extended Key Usage: 
                TLS Web Client Authentication
            X509v3 Key Usage: 
                Digital Signature
    Signature Algorithm: sha256WithRSAEncryption
         19:51:c7:55:65:27:4d:4c:a3:76:10:77:89:22:1e:b7:d7:14:
         9c:26:19:57:4c:f6:08:5e:c6:75:25:95:e8:a3:25:3f:4d:43:
         fe:f1:4e:9d:1a:9b:5f:6c:81:d3:fb:3c:98:dd:69:eb:3d:b1:
         95:77:c7:6b:73:26:b8:a2:14:8a:3c:c9:73:c7:c5:1d:f2:30:
         9f:b3:39:08:dc:42:dd:5c:28:11:9f:06:12:dd:b0:07:ec:d6:
         5c:5b:aa:96:00:89:1f:2a:b7:63:ea:a8:55:34:b2:1c:1e:1b:
         85:ea:d3:d8:17:c2:50:da:dd:29:70:4d:94:63:c4:9b:08:73:
         ff:64:a8:f5:45:94:c2:c6:96:4c:5d:8f:5e:d4:24:a3:1a:dc:
         c1:db:f9:2d:d8:89:f1:94:fe:33:c6:78:da:57:49:ee:f4:64:
         19:4c:dc:50:30:8f:52:63:ea:d5:7d:6b:20:eb:61:bf:e7:1c:
         98:6d:e4:7e:c5:de:15:12:43:72:65:6f:fa:a6:57:b8:c6:64:
         b9:07:39:a7:fa:b7:a3:eb:07:df:d2:da:24:8d:f9:ec:08:97:
         49:94:19:e5:aa:78:ab:f5:f8:e9:22:00:31:61:eb:bd:21:ba:
         bf:b9:3a:f1:4f:32:e0:90:10:0f:dc:ff:84:07:3a:15:dd:8d:
         cc:09:d5:2e
-----BEGIN CERTIFICATE-----
MIIDOjCCAiKgAwIBAgIBAjANBgkqhkiG9w0BAQsFADAWMRQwEgYDVQQDDAtFYXN5
LVJTQSBDQTAeFw0yMDAzMTcwMzA1MThaFw0zMDAzMTUwMzA1MThaMBExDzANBgNV
BAMMBmNhc3BhcjCCASIwDQYJKoZIhvcNAQEBBQADggEPADCCAQoCggEBALgUoaQu
EPLGNzpVmb8b8TsHxIFtjVVJFZgHsPgr0VsmpkOdM2Mqulq3Hqo7c3YbIjvTzqoK
WgRHFZ4SyVjs2oz1BdDbVqSLUyoenXVl5+tapHE2AeHzdmAWfN+cLLiQ391Cs99C
PWBnxLCy/E1uMLElX0I+a1cR+AbQTAt7NqGFh8mI/SUUrNgh2mpIna7HDcIbv89N
tsbHjK+klLDH3IXRW5H4VPDz1Y0pq4WO30xF3aRcfpWj8JDVTzYxr6UFq99jDCIV
Nwb9Jd7gE63neNTpdYaXZLR6ho4oq/gxvrFp2O48Kx9kcvQiJfujQNqwtepna05p
neNxem48JmJkK+sCAwEAAaOBlzCBlDAJBgNVHRMEAjAAMB0GA1UdDgQWBBT2B9ds
aEhoHsna3zyhuDbRK4C13TBGBgNVHSMEPzA9gBQVWIEgwRtCcz3870GnlvysoDxB
3KEapBgwFjEUMBIGA1UEAwwLRWFzeS1SU0EgQ0GCCQDQEgXUvXpqbzATBgNVHSUE
DDAKBggrBgEFBQcDAjALBgNVHQ8EBAMCB4AwDQYJKoZIhvcNAQELBQADggEBABlR
x1VlJ01Mo3YQd4kiHrfXFJwmGVdM9ghexnUlleijJT9NQ/7xTp0am19sgdP7PJjd
aes9sZV3x2tzJriiFIo8yXPHxR3yMJ+zOQjcQt1cKBGfBhLdsAfs1lxbqpYAiR8q
t2PqqFU0shweG4Xq09gXwlDa3SlwTZRjxJsIc/9kqPVFlMLGlkxdj17UJKMa3MHb
+S3YifGU/jPGeNpXSe70ZBlM3FAwj1Jj6tV9ayDrYb/nHJht5H7F3hUSQ3Jlb/qm
V7jGZLkHOaf6t6PrB9/S2iSN+ewIl0mUGeWqeKv1+OkiADFh670hur+5OvFPMuCQ
EA/c/4QHOhXdjcwJ1S4=
-----END CERTIFICATE-----
