Certificate:
    Data:
        Version: 3 (0x2)
        Serial Number: 2 (0x2)
    Signature Algorithm: sha256WithRSAEncryption
        Issuer: CN=Easy-RSA CA
        Validity
            Not Before: Mar 16 14:10:49 2020 GMT
            Not After : Mar 14 14:10:49 2030 GMT
        Subject: CN=caspar
        Subject Public Key Info:
            Public Key Algorithm: rsaEncryption
                Public-Key: (2048 bit)
                Modulus:
                    00:ee:54:a6:9d:75:1d:68:79:83:e9:05:e6:27:98:
                    b7:c4:a0:fc:cd:44:5a:1c:e1:63:dc:bf:83:0d:68:
                    7a:98:c3:b4:82:61:89:49:96:c9:f1:d8:22:b9:af:
                    45:d4:bc:25:8b:82:3b:d4:f8:78:c9:b6:6b:ee:0e:
                    11:58:41:9f:35:d1:17:19:8b:9f:2d:58:0d:3f:32:
                    27:fb:ac:6f:85:5f:fa:ab:21:20:55:b1:35:10:6c:
                    e0:88:09:e1:13:b6:a0:dc:a1:6f:5d:c5:73:69:f5:
                    f4:bc:37:0d:04:20:f6:16:a2:d4:f5:bd:d2:e8:31:
                    60:1d:2c:34:10:56:3f:70:3d:6b:7b:da:28:36:06:
                    ef:70:6f:d1:32:8b:63:f5:0a:b9:6c:90:6e:5a:64:
                    bd:f2:58:ba:1a:6c:d6:23:09:3b:37:a0:78:de:1e:
                    a7:02:d4:fd:17:92:ca:d7:67:cf:c1:b6:ac:ee:1c:
                    c6:51:46:7a:66:43:bc:c4:18:af:9d:68:71:04:d6:
                    1b:9b:e8:02:a0:cc:be:4e:b1:33:bb:32:56:f4:e3:
                    75:03:b9:e5:ca:05:c5:c9:e8:9e:98:b4:14:4f:7b:
                    06:d3:f7:1c:7f:f6:d3:8c:39:ef:3b:b3:46:28:b0:
                    ab:20:9d:05:fe:4c:2d:f5:5b:72:78:20:87:a8:90:
                    64:fd
                Exponent: 65537 (0x10001)
        X509v3 extensions:
            X509v3 Basic Constraints: 
                CA:FALSE
            X509v3 Subject Key Identifier: 
                1E:6B:7E:A9:F9:55:E7:69:2E:13:FF:66:56:CB:BA:DB:C5:5E:CA:83
            X509v3 Authority Key Identifier: 
                keyid:7C:EF:57:84:53:05:06:11:6E:3C:25:B4:CB:C1:09:AF:A2:87:AF:62
                DirName:/CN=Easy-RSA CA
                serial:8F:34:19:A3:75:2E:65:A0

            X509v3 Extended Key Usage: 
                TLS Web Client Authentication
            X509v3 Key Usage: 
                Digital Signature
    Signature Algorithm: sha256WithRSAEncryption
         57:a1:01:e8:e9:82:95:94:08:91:f7:d1:92:bc:17:9a:6f:c8:
         3d:eb:4b:97:20:05:5a:fb:b0:8c:3c:e1:ec:5a:8e:74:02:bd:
         5f:6c:85:5f:60:9f:10:0c:af:f0:00:56:8b:49:e7:0a:d0:1d:
         87:64:6e:fb:1b:80:92:50:7c:fe:a2:2b:40:5e:fa:d8:36:59:
         75:cf:cb:29:db:c8:bc:02:84:91:70:bc:e7:ca:33:6c:d9:13:
         62:7a:47:5d:70:da:23:cd:2b:5f:0a:5d:b4:6c:8a:90:bd:ff:
         16:7b:db:6e:f9:29:14:73:c7:5a:06:ac:da:8d:9e:92:42:b3:
         97:62:63:e5:bb:ea:81:45:64:99:32:8a:6d:cb:4b:a2:88:b4:
         a8:06:c2:cd:f4:24:43:2a:24:38:e8:bb:9b:b2:95:0f:8f:48:
         72:cb:d8:0c:aa:7c:4e:26:01:7a:ad:1d:eb:06:f3:74:6c:ef:
         d4:e6:d2:38:88:c3:a0:e2:58:ef:cb:e2:eb:d2:39:15:41:c8:
         5c:a5:15:9b:86:6f:29:9d:9f:f7:c9:b1:02:93:2c:a9:89:4d:
         38:e3:6d:7b:3f:a6:5c:b0:ae:21:ba:34:53:77:9a:db:84:11:
         9f:55:a2:5f:c8:4d:45:51:d8:13:d2:8d:b8:1a:ae:46:11:d9:
         23:5c:2a:79
-----BEGIN CERTIFICATE-----
MIIDOjCCAiKgAwIBAgIBAjANBgkqhkiG9w0BAQsFADAWMRQwEgYDVQQDDAtFYXN5
LVJTQSBDQTAeFw0yMDAzMTYxNDEwNDlaFw0zMDAzMTQxNDEwNDlaMBExDzANBgNV
BAMMBmNhc3BhcjCCASIwDQYJKoZIhvcNAQEBBQADggEPADCCAQoCggEBAO5Upp11
HWh5g+kF5ieYt8Sg/M1EWhzhY9y/gw1oepjDtIJhiUmWyfHYIrmvRdS8JYuCO9T4
eMm2a+4OEVhBnzXRFxmLny1YDT8yJ/usb4Vf+qshIFWxNRBs4IgJ4RO2oNyhb13F
c2n19Lw3DQQg9hai1PW90ugxYB0sNBBWP3A9a3vaKDYG73Bv0TKLY/UKuWyQblpk
vfJYuhps1iMJOzegeN4epwLU/ReSytdnz8G2rO4cxlFGemZDvMQYr51ocQTWG5vo
AqDMvk6xM7syVvTjdQO55coFxcnonpi0FE97BtP3HH/204w57zuzRiiwqyCdBf5M
LfVbcnggh6iQZP0CAwEAAaOBlzCBlDAJBgNVHRMEAjAAMB0GA1UdDgQWBBQea36p
+VXnaS4T/2ZWy7rbxV7KgzBGBgNVHSMEPzA9gBR871eEUwUGEW48JbTLwQmvooev
YqEapBgwFjEUMBIGA1UEAwwLRWFzeS1SU0EgQ0GCCQCPNBmjdS5loDATBgNVHSUE
DDAKBggrBgEFBQcDAjALBgNVHQ8EBAMCB4AwDQYJKoZIhvcNAQELBQADggEBAFeh
AejpgpWUCJH30ZK8F5pvyD3rS5cgBVr7sIw84exajnQCvV9shV9gnxAMr/AAVotJ
5wrQHYdkbvsbgJJQfP6iK0Be+tg2WXXPyynbyLwChJFwvOfKM2zZE2J6R11w2iPN
K18KXbRsipC9/xZ72275KRRzx1oGrNqNnpJCs5diY+W76oFFZJkyim3LS6KItKgG
ws30JEMqJDjou5uylQ+PSHLL2AyqfE4mAXqtHesG83Rs79Tm0jiIw6DiWO/L4uvS
ORVByFylFZuGbymdn/fJsQKTLKmJTTjjbXs/plywriG6NFN3mtuEEZ9Vol/ITUVR
2BPSjbgarkYR2SNcKnk=
-----END CERTIFICATE-----
